target datalayout = "e-m:e-p270:32:32-p271:32:32-p272:64:64-i64:64-i128:128-f80:128-n8:16:32:64-S128"
target triple = "x86_64-pc-linux-gnu"

%struct.Abc_Frame_t_ = type { ptr, ptr, ptr, ptr, ptr, ptr, ptr, ptr, ptr, ptr, i32, i32, i32, i32, i32, ptr, float, float, i32, i32, ptr, ptr, ptr, double, double, ptr, ptr, ptr, ptr, ptr, ptr, ptr, ptr, ptr, ptr, ptr, ptr, float, ptr, i32, ptr, ptr, ptr, ptr, ptr, i32, i32, i32, i32, i32, i32, ptr, ptr, ptr, ptr, ptr, ptr, i32, i32, ptr, ptr, ptr, ptr, ptr, ptr, ptr, ptr, ptr, ptr, ptr, ptr, ptr, ptr, ptr, ptr, ptr, ptr, ptr, ptr, ptr, ptr, ptr, ptr, ptr, ptr, ptr, ptr, ptr, ptr }
%struct.Vec_Ptr_t_ = type { i32, i32, ptr }

@s_GlobalFrame = internal global ptr null, align 8

; Function Attrs: inlinehint nounwind uwtable
define internal ptr @Vec_PtrEntry(ptr noundef %0, i32 noundef %1) #1 {
  %3 = alloca ptr, align 8
  %4 = alloca i32, align 4
  store ptr %0, ptr %3, align 8, !tbaa !25
  store i32 %1, ptr %4, align 4, !tbaa !65
  %5 = load ptr, ptr %3, align 8, !tbaa !25
  %6 = getelementptr inbounds nuw %struct.Vec_Ptr_t_, ptr %5, i32 0, i32 2
  %7 = load ptr, ptr %6, align 8, !tbaa !91
  %8 = load i32, ptr %4, align 4, !tbaa !65
  %9 = sext i32 %8 to i64
  %10 = getelementptr inbounds ptr, ptr %7, i64 %9
  %11 = load ptr, ptr %10, align 8, !tbaa !55
  ret ptr %11
}

; Function Attrs: inlinehint nounwind uwtable
define internal i32 @Vec_PtrSize(ptr noundef %0) #1 {
  %2 = alloca ptr, align 8
  store ptr %0, ptr %2, align 8, !tbaa !25
  %3 = load ptr, ptr %2, align 8, !tbaa !25
  %4 = getelementptr inbounds nuw %struct.Vec_Ptr_t_, ptr %3, i32 0, i32 1
  %5 = load i32, ptr %4, align 4, !tbaa !26
  ret i32 %5
}

; Function Attrs: inlinehint nounwind uwtable
define internal void @Vec_PtrFree(ptr noundef %0) #1 {
  %2 = alloca ptr, align 8
  store ptr %0, ptr %2, align 8, !tbaa !25
  %3 = load ptr, ptr %2, align 8, !tbaa !25
  %4 = getelementptr inbounds nuw %struct.Vec_Ptr_t_, ptr %3, i32 0, i32 2
  %5 = load ptr, ptr %4, align 8, !tbaa !91
  %6 = icmp ne ptr %5, null
  br i1 %6, label %7, label %13

7:                                                ; preds = %1
  %8 = load ptr, ptr %2, align 8, !tbaa !25
  %9 = getelementptr inbounds nuw %struct.Vec_Ptr_t_, ptr %8, i32 0, i32 2
  %10 = load ptr, ptr %9, align 8, !tbaa !91
  call void @free(ptr noundef %10) #10
  %11 = load ptr, ptr %2, align 8, !tbaa !25
  %12 = getelementptr inbounds nuw %struct.Vec_Ptr_t_, ptr %11, i32 0, i32 2
  store ptr null, ptr %12, align 8, !tbaa !91
  br label %14

13:                                               ; preds = %1
  br label %14

14:                                               ; preds = %13, %7
  %15 = load ptr, ptr %2, align 8, !tbaa !25
  %16 = icmp ne ptr %15, null
  br i1 %16, label %17, label %19

17:                                               ; preds = %14
  %18 = load ptr, ptr %2, align 8, !tbaa !25
  call void @free(ptr noundef %18) #10
  store ptr null, ptr %2, align 8, !tbaa !25
  br label %20

19:                                               ; preds = %14
  br label %20

20:                                               ; preds = %19, %17
  ret void
}

; Function Attrs: inlinehint nounwind uwtable
define internal void @Vec_PtrFreeData(ptr noundef %0) #1 {
  %2 = alloca ptr, align 8
  %3 = alloca ptr, align 8
  %4 = alloca i32, align 4
  %5 = alloca i32, align 4
  store ptr %0, ptr %2, align 8, !tbaa !25
  call void @llvm.lifetime.start.p0(i64 8, ptr %3) #10
  call void @llvm.lifetime.start.p0(i64 4, ptr %4) #10
  %6 = load ptr, ptr %2, align 8, !tbaa !25
  %7 = icmp eq ptr %6, null
  br i1 %7, label %8, label %9

8:                                                ; preds = %1
  store i32 1, ptr %5, align 4
  br label %39

9:                                                ; preds = %1
  store i32 0, ptr %4, align 4, !tbaa !65
  br label %10

10:                                               ; preds = %35, %9
  %11 = load i32, ptr %4, align 4, !tbaa !65
  %12 = load ptr, ptr %2, align 8, !tbaa !25
  %13 = call i32 @Vec_PtrSize(ptr noundef %12)
  %14 = icmp slt i32 %11, %13
  br i1 %14, label %15, label %19

15:                                               ; preds = %10
  %16 = load ptr, ptr %2, align 8, !tbaa !25
  %17 = load i32, ptr %4, align 4, !tbaa !65
  %18 = call ptr @Vec_PtrEntry(ptr noundef %16, i32 noundef %17)
  store ptr %18, ptr %3, align 8, !tbaa !55
  br label %19

19:                                               ; preds = %15, %10
  %20 = phi i1 [ false, %10 ], [ true, %15 ]
  br i1 %20, label %21, label %38

21:                                               ; preds = %19
  %22 = load ptr, ptr %3, align 8, !tbaa !55
  %23 = icmp ne ptr %22, inttoptr (i64 1 to ptr)
  br i1 %23, label %24, label %34

24:                                               ; preds = %21
  %25 = load ptr, ptr %3, align 8, !tbaa !55
  %26 = icmp ne ptr %25, inttoptr (i64 2 to ptr)
  br i1 %26, label %27, label %34

27:                                               ; preds = %24
  %28 = load ptr, ptr %3, align 8, !tbaa !55
  %29 = icmp ne ptr %28, null
  br i1 %29, label %30, label %32

30:                                               ; preds = %27
  %31 = load ptr, ptr %3, align 8, !tbaa !55
  call void @free(ptr noundef %31) #10
  store ptr null, ptr %3, align 8, !tbaa !55
  br label %33

32:                                               ; preds = %27
  br label %33

33:                                               ; preds = %32, %30
  br label %34

34:                                               ; preds = %33, %24, %21
  br label %35

35:                                               ; preds = %34
  %36 = load i32, ptr %4, align 4, !tbaa !65
  %37 = add nsw i32 %36, 1
  store i32 %37, ptr %4, align 4, !tbaa !65
  br label %10, !llvm.loop !138

38:                                               ; preds = %19
  store i32 0, ptr %5, align 4
  br label %39

39:                                               ; preds = %38, %8
  call void @llvm.lifetime.end.p0(i64 4, ptr %4) #10
  call void @llvm.lifetime.end.p0(i64 8, ptr %3) #10
  %40 = load i32, ptr %5, align 4
  switch i32 %40, label %42 [
    i32 0, label %41
    i32 1, label %41
  ]

41:                                               ; preds = %39, %39
  ret void

42:                                               ; preds = %39
  unreachable
}

; Function Attrs: inlinehint nounwind uwtable
define internal void @Vec_PtrFreeFree(ptr noundef %0) #1 {
  %2 = alloca ptr, align 8
  store ptr %0, ptr %2, align 8, !tbaa !25
  %3 = load ptr, ptr %2, align 8, !tbaa !25
  %4 = icmp eq ptr %3, null
  br i1 %4, label %5, label %6

5:                                                ; preds = %1
  br label %9

6:                                                ; preds = %1
  %7 = load ptr, ptr %2, align 8, !tbaa !25
  call void @Vec_PtrFreeData(ptr noundef %7)
  %8 = load ptr, ptr %2, align 8, !tbaa !25
  call void @Vec_PtrFree(ptr noundef %8)
  br label %9

9:                                                ; preds = %6, %5
  ret void
}

; Function Attrs: nounwind uwtable
define void @Abc_FrameSetSignalNames(ptr noundef %0) #0 {
  %2 = alloca ptr, align 8
  store ptr %0, ptr %2, align 8, !tbaa !25
  %3 = load ptr, ptr @s_GlobalFrame, align 8, !tbaa !3
  %4 = getelementptr inbounds nuw %struct.Abc_Frame_t_, ptr %3, i32 0, i32 61
  %5 = load ptr, ptr %4, align 8, !tbaa !39
  %6 = icmp ne ptr %5, null
  br i1 %6, label %7, label %11

7:                                                ; preds = %1
  %8 = load ptr, ptr @s_GlobalFrame, align 8, !tbaa !3
  %9 = getelementptr inbounds nuw %struct.Abc_Frame_t_, ptr %8, i32 0, i32 61
  %10 = load ptr, ptr %9, align 8, !tbaa !39
  call void @Vec_PtrFreeFree(ptr noundef %10)
  br label %11

11:                                               ; preds = %7, %1
  %12 = load ptr, ptr %2, align 8, !tbaa !25
  %13 = load ptr, ptr @s_GlobalFrame, align 8, !tbaa !3
  %14 = getelementptr inbounds nuw %struct.Abc_Frame_t_, ptr %13, i32 0, i32 61
  store ptr %12, ptr %14, align 8, !tbaa !39
  ret void
}