; Function Attrs: nounwind uwtable
define void @Abc_FrameSetSignalNames(ptr noundef %0) local_unnamed_addr #1 {
  %2 = load ptr, ptr @s_GlobalFrame, align 8, !tbaa !3
  %3 = getelementptr inbounds nuw i8, ptr %2, i64 424
  %4 = load ptr, ptr %3, align 8, !tbaa !37
  %.not = icmp eq ptr %4, null
  br i1 %.not, label %19, label %5

5:                                                ; preds = %1
  %6 = getelementptr i8, ptr %4, i64 4
  %.val15.i.i = load i32, ptr %6, align 4, !tbaa !25
  %7 = icmp sgt i32 %.val15.i.i, 0
  br i1 %7, label %.lr.ph.i.i, label %Vec_PtrFreeData.exit.i

.lr.ph.i.i:                                       ; preds = %5
  %8 = getelementptr i8, ptr %4, i64 8
  br label %9

9:                                                ; preds = %13, %.lr.ph.i.i
  %.val18.i.i = phi i32 [ %.val15.i.i, %.lr.ph.i.i ], [ %.val.i.i, %13 ]
  %indvars.iv.i.i = phi i64 [ 0, %.lr.ph.i.i ], [ %indvars.iv.next.i.i, %13 ]
  %.val14.i.i = load ptr, ptr %8, align 8, !tbaa !68
  %10 = getelementptr inbounds nuw ptr, ptr %.val14.i.i, i64 %indvars.iv.i.i
  %11 = load ptr, ptr %10, align 8, !tbaa !69
  %switch.i.i = icmp ult ptr %11, inttoptr (i64 3 to ptr)
  br i1 %switch.i.i, label %13, label %12

12:                                               ; preds = %9
  tail call void @free(ptr noundef %11) #20
  %.val.pre.i.i = load i32, ptr %6, align 4, !tbaa !25
  br label %13

13:                                               ; preds = %12, %9
  %.val.i.i = phi i32 [ %.val18.i.i, %9 ], [ %.val.pre.i.i, %12 ]
  %indvars.iv.next.i.i = add nuw nsw i64 %indvars.iv.i.i, 1
  %14 = sext i32 %.val.i.i to i64
  %15 = icmp slt i64 %indvars.iv.next.i.i, %14
  br i1 %15, label %9, label %Vec_PtrFreeData.exit.i, !llvm.loop !70

Vec_PtrFreeData.exit.i:                           ; preds = %13, %5
  %16 = getelementptr inbounds nuw i8, ptr %4, i64 8
  %17 = load ptr, ptr %16, align 8, !tbaa !68
  %.not.i.i = icmp eq ptr %17, null
  br i1 %.not.i.i, label %Vec_PtrFreeFree.exit, label %18

18:                                               ; preds = %Vec_PtrFreeData.exit.i
  tail call void @free(ptr noundef nonnull %17) #20
  br label %Vec_PtrFreeFree.exit

Vec_PtrFreeFree.exit:                             ; preds = %Vec_PtrFreeData.exit.i, %18
  tail call void @free(ptr noundef nonnull %4) #20
  br label %19

19:                                               ; preds = %Vec_PtrFreeFree.exit, %1
  store ptr %0, ptr %3, align 8, !tbaa !37
  ret void
}